
out:     file format elf32-littleriscv


Disassembly of section .text:

00010074 <main>:
   10074:	fb010113          	add	sp,sp,-80
   10078:	04812623          	sw	s0,76(sp)
   1007c:	05010413          	add	s0,sp,80
   10080:	fc042c23          	sw	zero,-40(s0)
   10084:	fe042623          	sw	zero,-20(s0)
   10088:	fe042423          	sw	zero,-24(s0)
   1008c:	001f7713          	and	a4,t5,1
   10090:	002f7713          	and	a4,t5,2
   10094:	fce42c23          	sw	a4,-40(s0)
   10098:	fef42623          	sw	a5,-20(s0)
   1009c:	fd842783          	lw	a5,-40(s0)
   100a0:	fe0796e3          	bnez	a5,1008c <main+0x18>
   100a4:	00c0006f          	j	100b0 <main+0x3c>
   100a8:	002f7793          	and	a5,t5,2
   100ac:	fef42623          	sw	a5,-20(s0)
   100b0:	fec42703          	lw	a4,-20(s0)
   100b4:	00100793          	li	a5,1
   100b8:	fef708e3          	beq	a4,a5,100a8 <main+0x34>
   100bc:	fe842783          	lw	a5,-24(s0)
   100c0:	00178793          	add	a5,a5,1
   100c4:	fef42423          	sw	a5,-24(s0)
   100c8:	fe842703          	lw	a4,-24(s0)
   100cc:	01f00793          	li	a5,31
   100d0:	06e7c463          	blt	a5,a4,10138 <main+0xc4>
   100d4:	00100793          	li	a5,1
   100d8:	fef42223          	sw	a5,-28(s0)
   100dc:	0540006f          	j	10130 <main+0xbc>
   100e0:	fe842703          	lw	a4,-24(s0)
   100e4:	41f75793          	sra	a5,a4,0x1f
   100e8:	01f7d793          	srl	a5,a5,0x1f
   100ec:	00f70733          	add	a4,a4,a5
   100f0:	00177713          	and	a4,a4,1
   100f4:	40f707b3          	sub	a5,a4,a5
   100f8:	00078713          	mv	a4,a5
   100fc:	fe442783          	lw	a5,-28(s0)
   10100:	00279793          	sll	a5,a5,0x2
   10104:	ff078793          	add	a5,a5,-16
   10108:	008787b3          	add	a5,a5,s0
   1010c:	fce7aa23          	sw	a4,-44(a5)
   10110:	fe842783          	lw	a5,-24(s0)
   10114:	01f7d713          	srl	a4,a5,0x1f
   10118:	00f707b3          	add	a5,a4,a5
   1011c:	4017d793          	sra	a5,a5,0x1
   10120:	fef42423          	sw	a5,-24(s0)
   10124:	fe442783          	lw	a5,-28(s0)
   10128:	00178793          	add	a5,a5,1
   1012c:	fef42223          	sw	a5,-28(s0)
   10130:	fe842783          	lw	a5,-24(s0)
   10134:	faf046e3          	bgtz	a5,100e0 <main+0x6c>
   10138:	fc842783          	lw	a5,-56(s0)
   1013c:	00179793          	sll	a5,a5,0x1
   10140:	faf42a23          	sw	a5,-76(s0)
   10144:	fcc42783          	lw	a5,-52(s0)
   10148:	00279793          	sll	a5,a5,0x2
   1014c:	faf42c23          	sw	a5,-72(s0)
   10150:	fd042783          	lw	a5,-48(s0)
   10154:	00379793          	sll	a5,a5,0x3
   10158:	faf42e23          	sw	a5,-68(s0)
   1015c:	fd442783          	lw	a5,-44(s0)
   10160:	00479793          	sll	a5,a5,0x4
   10164:	fcf42023          	sw	a5,-64(s0)
   10168:	fd842783          	lw	a5,-40(s0)
   1016c:	00579793          	sll	a5,a5,0x5
   10170:	fcf42223          	sw	a5,-60(s0)
   10174:	fb442783          	lw	a5,-76(s0)
   10178:	fb842703          	lw	a4,-72(s0)
   1017c:	fbc42683          	lw	a3,-68(s0)
   10180:	fc042603          	lw	a2,-64(s0)
   10184:	fc442583          	lw	a1,-60(s0)
   10188:	00ff6f33          	or	t5,t5,a5
   1018c:	00ef6f33          	or	t5,t5,a4
   10190:	00df6f33          	or	t5,t5,a3
   10194:	00cf6f33          	or	t5,t5,a2
   10198:	00bf6f33          	or	t5,t5,a1
   1019c:	fe042023          	sw	zero,-32(s0)
   101a0:	0340006f          	j	101d4 <main+0x160>
   101a4:	fc042e23          	sw	zero,-36(s0)
   101a8:	0100006f          	j	101b8 <main+0x144>
   101ac:	fdc42783          	lw	a5,-36(s0)
   101b0:	00178793          	add	a5,a5,1
   101b4:	fcf42e23          	sw	a5,-36(s0)
   101b8:	fdc42703          	lw	a4,-36(s0)
   101bc:	000027b7          	lui	a5,0x2
   101c0:	70f78793          	add	a5,a5,1807 # 270f <main-0xd965>
   101c4:	fee7d4e3          	bge	a5,a4,101ac <main+0x138>
   101c8:	fe042783          	lw	a5,-32(s0)
   101cc:	00178793          	add	a5,a5,1
   101d0:	fef42023          	sw	a5,-32(s0)
   101d4:	fe042703          	lw	a4,-32(s0)
   101d8:	12b00793          	li	a5,299
   101dc:	fce7d4e3          	bge	a5,a4,101a4 <main+0x130>
   101e0:	eadff06f          	j	1008c <main+0x18>
