
out:     file format elf32-littleriscv


Disassembly of section .text:

00010054 <main>:
   10054:	fb010113          	addi	sp,sp,-80
   10058:	04812623          	sw	s0,76(sp)
   1005c:	05010413          	addi	s0,sp,80
   10060:	fc042c23          	sw	zero,-40(s0)
   10064:	fe042623          	sw	zero,-20(s0)
   10068:	fe042423          	sw	zero,-24(s0)
   1006c:	001f7713          	andi	a4,t5,1
   10070:	002f7713          	andi	a4,t5,2
   10074:	fce42c23          	sw	a4,-40(s0)
   10078:	fef42623          	sw	a5,-20(s0)
   1007c:	fd842783          	lw	a5,-40(s0)
   10080:	fe0796e3          	bnez	a5,1006c <main+0x18>
   10084:	00c0006f          	j	10090 <main+0x3c>
   10088:	002f7793          	andi	a5,t5,2
   1008c:	fef42623          	sw	a5,-20(s0)
   10090:	fec42703          	lw	a4,-20(s0)
   10094:	00100793          	li	a5,1
   10098:	fef708e3          	beq	a4,a5,10088 <main+0x34>
   1009c:	fe842783          	lw	a5,-24(s0)
   100a0:	00178793          	addi	a5,a5,1
   100a4:	fef42423          	sw	a5,-24(s0)
   100a8:	fe842703          	lw	a4,-24(s0)
   100ac:	01f00793          	li	a5,31
   100b0:	06e7c463          	blt	a5,a4,10118 <main+0xc4>
   100b4:	00100793          	li	a5,1
   100b8:	fef42223          	sw	a5,-28(s0)
   100bc:	0540006f          	j	10110 <main+0xbc>
   100c0:	fe842703          	lw	a4,-24(s0)
   100c4:	41f75793          	srai	a5,a4,0x1f
   100c8:	01f7d793          	srli	a5,a5,0x1f
   100cc:	00f70733          	add	a4,a4,a5
   100d0:	00177713          	andi	a4,a4,1
   100d4:	40f707b3          	sub	a5,a4,a5
   100d8:	00078713          	mv	a4,a5
   100dc:	fe442783          	lw	a5,-28(s0)
   100e0:	00279793          	slli	a5,a5,0x2
   100e4:	ff040693          	addi	a3,s0,-16
   100e8:	00f687b3          	add	a5,a3,a5
   100ec:	fce7aa23          	sw	a4,-44(a5)
   100f0:	fe842783          	lw	a5,-24(s0)
   100f4:	01f7d713          	srli	a4,a5,0x1f
   100f8:	00f707b3          	add	a5,a4,a5
   100fc:	4017d793          	srai	a5,a5,0x1
   10100:	fef42423          	sw	a5,-24(s0)
   10104:	fe442783          	lw	a5,-28(s0)
   10108:	00178793          	addi	a5,a5,1
   1010c:	fef42223          	sw	a5,-28(s0)
   10110:	fe842783          	lw	a5,-24(s0)
   10114:	faf046e3          	bgtz	a5,100c0 <main+0x6c>
   10118:	fc842783          	lw	a5,-56(s0)
   1011c:	00179793          	slli	a5,a5,0x1
   10120:	faf42a23          	sw	a5,-76(s0)
   10124:	fcc42783          	lw	a5,-52(s0)
   10128:	00279793          	slli	a5,a5,0x2
   1012c:	faf42c23          	sw	a5,-72(s0)
   10130:	fd042783          	lw	a5,-48(s0)
   10134:	00379793          	slli	a5,a5,0x3
   10138:	faf42e23          	sw	a5,-68(s0)
   1013c:	fd442783          	lw	a5,-44(s0)
   10140:	00479793          	slli	a5,a5,0x4
   10144:	fcf42023          	sw	a5,-64(s0)
   10148:	fd842783          	lw	a5,-40(s0)
   1014c:	00579793          	slli	a5,a5,0x5
   10150:	fcf42223          	sw	a5,-60(s0)
   10154:	fb442783          	lw	a5,-76(s0)
   10158:	fb842703          	lw	a4,-72(s0)
   1015c:	fbc42683          	lw	a3,-68(s0)
   10160:	fc042603          	lw	a2,-64(s0)
   10164:	fc442583          	lw	a1,-60(s0)
   10168:	00ff6f33          	or	t5,t5,a5
   1016c:	00ef6f33          	or	t5,t5,a4
   10170:	00df6f33          	or	t5,t5,a3
   10174:	00cf6f33          	or	t5,t5,a2
   10178:	00bf6f33          	or	t5,t5,a1
   1017c:	fe042023          	sw	zero,-32(s0)
   10180:	0340006f          	j	101b4 <main+0x160>
   10184:	fc042e23          	sw	zero,-36(s0)
   10188:	0100006f          	j	10198 <main+0x144>
   1018c:	fdc42783          	lw	a5,-36(s0)
   10190:	00178793          	addi	a5,a5,1
   10194:	fcf42e23          	sw	a5,-36(s0)
   10198:	fdc42703          	lw	a4,-36(s0)
   1019c:	000f47b7          	lui	a5,0xf4
   101a0:	23f78793          	addi	a5,a5,575 # f423f <__global_pointer$+0xe2877>
   101a4:	fee7d4e3          	bge	a5,a4,1018c <main+0x138>
   101a8:	fe042783          	lw	a5,-32(s0)
   101ac:	00178793          	addi	a5,a5,1
   101b0:	fef42023          	sw	a5,-32(s0)
   101b4:	fe042703          	lw	a4,-32(s0)
   101b8:	000017b7          	lui	a5,0x1
   101bc:	bb778793          	addi	a5,a5,-1097 # bb7 <main-0xf49d>
   101c0:	fce7d2e3          	bge	a5,a4,10184 <main+0x130>
   101c4:	ea9ff06f          	j	1006c <main+0x18>
